   1              		.cpu arm7tdmi
   2              		.fpu softvfp
   3              		.eabi_attribute 20, 1
   4              		.eabi_attribute 21, 1
   5              		.eabi_attribute 23, 3
   6              		.eabi_attribute 24, 1
   7              		.eabi_attribute 25, 1
   8              		.eabi_attribute 26, 1
   9              		.eabi_attribute 30, 6
  10              		.eabi_attribute 18, 4
  11              		.file	"gpio.c"
  21              	.Ltext0:
  22              		.file 1 "../src/gpio.c"
 1698              		.align	2
 1699              		.global	portB_conf
 1701              	portB_conf:
 1702              	.LFB0:
   1:../src/gpio.c **** #include "44b.h"
   2:../src/gpio.c **** #include "gpio.h"
   3:../src/gpio.c **** 
   4:../src/gpio.c **** /* Port B interface implementation */
   5:../src/gpio.c **** 
   6:../src/gpio.c **** int portB_conf(int pin, enum port_mode mode)
   7:../src/gpio.c **** {
 1703              		.loc 1 7 0
 1704              		.cfi_startproc
 1705              		@ Function supports interworking.
 1706              		@ args = 0, pretend = 0, frame = 16
 1707              		@ frame_needed = 1, uses_anonymous_args = 0
 1708 0000 0DC0A0E1 		mov	ip, sp
 1709              	.LCFI0:
 1710              		.cfi_def_cfa_register 12
 1711 0004 00D82DE9 		stmfd	sp!, {fp, ip, lr, pc}
 1712 0008 04B04CE2 		sub	fp, ip, #4
 1713              		.cfi_offset 14, -8
 1714              		.cfi_offset 13, -12
 1715              		.cfi_offset 11, -16
 1716              	.LCFI1:
 1717              		.cfi_def_cfa 11, 4
 1718 000c 10D04DE2 		sub	sp, sp, #16
 1719 0010 18000BE5 		str	r0, [fp, #-24]
 1720 0014 0130A0E1 		mov	r3, r1
 1721 0018 19304BE5 		strb	r3, [fp, #-25]
   8:../src/gpio.c **** 	int ret = 0;
 1722              		.loc 1 8 0
 1723 001c 0030A0E3 		mov	r3, #0
 1724 0020 10300BE5 		str	r3, [fp, #-16]
   9:../src/gpio.c **** 	if (pin < 0 || pin > 10)
 1725              		.loc 1 9 0
 1726 0024 18301BE5 		ldr	r3, [fp, #-24]
 1727 0028 000053E3 		cmp	r3, #0
 1728 002c 020000BA 		blt	.L2
 1729              		.loc 1 9 0 is_stmt 0 discriminator 1
 1730 0030 18301BE5 		ldr	r3, [fp, #-24]
 1731 0034 0A0053E3 		cmp	r3, #10
 1732 0038 010000DA 		ble	.L3
 1733              	.L2:
  10:../src/gpio.c **** 		return -1;
 1734              		.loc 1 10 0 is_stmt 1
 1735 003c 0030E0E3 		mvn	r3, #0
 1736 0040 1B0000EA 		b	.L4
 1737              	.L3:
  11:../src/gpio.c **** 
  12:../src/gpio.c **** 	if (mode == SIGOUT)
 1738              		.loc 1 12 0
 1739 0044 19305BE5 		ldrb	r3, [fp, #-25]	@ zero_extendqisi2
 1740 0048 020053E3 		cmp	r3, #2
 1741 004c 0800001A 		bne	.L5
  13:../src/gpio.c **** 		// COMPLETAR si es necesario
  14:../src/gpio.c **** 		rPCONB |= (0x1 << pin);
 1742              		.loc 1 14 0
 1743 0050 6C309FE5 		ldr	r3, .L8
 1744 0054 68209FE5 		ldr	r2, .L8
 1745 0058 001092E5 		ldr	r1, [r2, #0]
 1746 005c 0100A0E3 		mov	r0, #1
 1747 0060 18201BE5 		ldr	r2, [fp, #-24]
 1748 0064 1022A0E1 		mov	r2, r0, asl r2
 1749 0068 022081E1 		orr	r2, r1, r2
 1750 006c 002083E5 		str	r2, [r3, #0]
 1751 0070 0E0000EA 		b	.L6
 1752              	.L5:
  15:../src/gpio.c **** 	else if (mode == OUTPUT)
 1753              		.loc 1 15 0
 1754 0074 19305BE5 		ldrb	r3, [fp, #-25]	@ zero_extendqisi2
 1755 0078 010053E3 		cmp	r3, #1
 1756 007c 0900001A 		bne	.L7
  16:../src/gpio.c **** 		// COMPLETAR: tomar la implementaci贸n pr谩cticas anteriores
  17:../src/gpio.c **** 		rPCONB &= ~(0x1 << pin);
 1757              		.loc 1 17 0
 1758 0080 3C309FE5 		ldr	r3, .L8
 1759 0084 38209FE5 		ldr	r2, .L8
 1760 0088 001092E5 		ldr	r1, [r2, #0]
 1761 008c 0100A0E3 		mov	r0, #1
 1762 0090 18201BE5 		ldr	r2, [fp, #-24]
 1763 0094 1022A0E1 		mov	r2, r0, asl r2
 1764 0098 0220E0E1 		mvn	r2, r2
 1765 009c 022001E0 		and	r2, r1, r2
 1766 00a0 002083E5 		str	r2, [r3, #0]
 1767 00a4 010000EA 		b	.L6
 1768              	.L7:
  18:../src/gpio.c **** 	else
  19:../src/gpio.c **** 		ret = -1;
 1769              		.loc 1 19 0
 1770 00a8 0030E0E3 		mvn	r3, #0
 1771 00ac 10300BE5 		str	r3, [fp, #-16]
 1772              	.L6:
  20:../src/gpio.c **** 
  21:../src/gpio.c **** 	return ret;
 1773              		.loc 1 21 0
 1774 00b0 10301BE5 		ldr	r3, [fp, #-16]
 1775              	.L4:
  22:../src/gpio.c **** }
 1776              		.loc 1 22 0
 1777 00b4 0300A0E1 		mov	r0, r3
 1778 00b8 0CD04BE2 		sub	sp, fp, #12
 1779 00bc 00689DE8 		ldmfd	sp, {fp, sp, lr}
 1780 00c0 1EFF2FE1 		bx	lr
 1781              	.L9:
 1782              		.align	2
 1783              	.L8:
 1784 00c4 0800D201 		.word	30539784
 1785              		.cfi_endproc
 1786              	.LFE0:
 1788              		.align	2
 1789              		.global	portB_write
 1791              	portB_write:
 1792              	.LFB1:
  23:../src/gpio.c **** 
  24:../src/gpio.c **** int portB_write(int pin, enum digital val)
  25:../src/gpio.c **** {
 1793              		.loc 1 25 0
 1794              		.cfi_startproc
 1795              		@ Function supports interworking.
 1796              		@ args = 0, pretend = 0, frame = 8
 1797              		@ frame_needed = 1, uses_anonymous_args = 0
 1798 00c8 0DC0A0E1 		mov	ip, sp
 1799              	.LCFI2:
 1800              		.cfi_def_cfa_register 12
 1801 00cc 00D82DE9 		stmfd	sp!, {fp, ip, lr, pc}
 1802 00d0 04B04CE2 		sub	fp, ip, #4
 1803              		.cfi_offset 14, -8
 1804              		.cfi_offset 13, -12
 1805              		.cfi_offset 11, -16
 1806              	.LCFI3:
 1807              		.cfi_def_cfa 11, 4
 1808 00d4 08D04DE2 		sub	sp, sp, #8
 1809 00d8 10000BE5 		str	r0, [fp, #-16]
 1810 00dc 0130A0E1 		mov	r3, r1
 1811 00e0 11304BE5 		strb	r3, [fp, #-17]
  26:../src/gpio.c **** 	if (pin < 0 || pin > 10)
 1812              		.loc 1 26 0
 1813 00e4 10301BE5 		ldr	r3, [fp, #-16]
 1814 00e8 000053E3 		cmp	r3, #0
 1815 00ec 020000BA 		blt	.L11
 1816              		.loc 1 26 0 is_stmt 0 discriminator 1
 1817 00f0 10301BE5 		ldr	r3, [fp, #-16]
 1818 00f4 0A0053E3 		cmp	r3, #10
 1819 00f8 010000DA 		ble	.L12
 1820              	.L11:
  27:../src/gpio.c **** 		return -1;
 1821              		.loc 1 27 0 is_stmt 1
 1822 00fc 0030E0E3 		mvn	r3, #0
 1823 0100 1A0000EA 		b	.L13
 1824              	.L12:
  28:../src/gpio.c **** 
  29:../src/gpio.c **** 	if (val < 0 || val > 1)
 1825              		.loc 1 29 0
 1826 0104 11305BE5 		ldrb	r3, [fp, #-17]	@ zero_extendqisi2
 1827 0108 010053E3 		cmp	r3, #1
 1828 010c 0100009A 		bls	.L14
  30:../src/gpio.c **** 		return -1;
 1829              		.loc 1 30 0
 1830 0110 0030E0E3 		mvn	r3, #0
 1831 0114 150000EA 		b	.L13
 1832              	.L14:
  31:../src/gpio.c **** 
  32:../src/gpio.c **** 	if (val)
 1833              		.loc 1 32 0
 1834 0118 11305BE5 		ldrb	r3, [fp, #-17]	@ zero_extendqisi2
 1835 011c 000053E3 		cmp	r3, #0
 1836 0120 0800000A 		beq	.L15
  33:../src/gpio.c **** 		// COMPLETAR: tomar la implementaci贸n pr谩cticas anteriores
  34:../src/gpio.c **** 		rPDATB |= (0x1 << pin);
 1837              		.loc 1 34 0
 1838 0124 54309FE5 		ldr	r3, .L17
 1839 0128 50209FE5 		ldr	r2, .L17
 1840 012c 001092E5 		ldr	r1, [r2, #0]
 1841 0130 0100A0E3 		mov	r0, #1
 1842 0134 10201BE5 		ldr	r2, [fp, #-16]
 1843 0138 1022A0E1 		mov	r2, r0, asl r2
 1844 013c 022081E1 		orr	r2, r1, r2
 1845 0140 002083E5 		str	r2, [r3, #0]
 1846 0144 080000EA 		b	.L16
 1847              	.L15:
  35:../src/gpio.c **** 	else
  36:../src/gpio.c **** 		// COMPLETAR: tomar la implementaci贸n pr谩cticas anteriores
  37:../src/gpio.c **** 		rPDATB &= ~(0x1 << pin);
 1848              		.loc 1 37 0
 1849 0148 30309FE5 		ldr	r3, .L17
 1850 014c 2C209FE5 		ldr	r2, .L17
 1851 0150 001092E5 		ldr	r1, [r2, #0]
 1852 0154 0100A0E3 		mov	r0, #1
 1853 0158 10201BE5 		ldr	r2, [fp, #-16]
 1854 015c 1022A0E1 		mov	r2, r0, asl r2
 1855 0160 0220E0E1 		mvn	r2, r2
 1856 0164 022001E0 		and	r2, r1, r2
 1857 0168 002083E5 		str	r2, [r3, #0]
 1858              	.L16:
  38:../src/gpio.c **** 
  39:../src/gpio.c **** 	return 0;
 1859              		.loc 1 39 0
 1860 016c 0030A0E3 		mov	r3, #0
 1861              	.L13:
  40:../src/gpio.c **** }
 1862              		.loc 1 40 0
 1863 0170 0300A0E1 		mov	r0, r3
 1864 0174 0CD04BE2 		sub	sp, fp, #12
 1865 0178 00689DE8 		ldmfd	sp, {fp, sp, lr}
 1866 017c 1EFF2FE1 		bx	lr
 1867              	.L18:
 1868              		.align	2
 1869              	.L17:
 1870 0180 0C00D201 		.word	30539788
 1871              		.cfi_endproc
 1872              	.LFE1:
 1874              		.align	2
 1875              		.global	portG_conf
 1877              	portG_conf:
 1878              	.LFB2:
  41:../src/gpio.c **** 
  42:../src/gpio.c **** /* Port G interface implementation */
  43:../src/gpio.c **** 
  44:../src/gpio.c **** int portG_conf(int pin, enum port_mode mode)
  45:../src/gpio.c **** {
 1879              		.loc 1 45 0
 1880              		.cfi_startproc
 1881              		@ Function supports interworking.
 1882              		@ args = 0, pretend = 0, frame = 16
 1883              		@ frame_needed = 1, uses_anonymous_args = 0
 1884 0184 0DC0A0E1 		mov	ip, sp
 1885              	.LCFI4:
 1886              		.cfi_def_cfa_register 12
 1887 0188 00D82DE9 		stmfd	sp!, {fp, ip, lr, pc}
 1888 018c 04B04CE2 		sub	fp, ip, #4
 1889              		.cfi_offset 14, -8
 1890              		.cfi_offset 13, -12
 1891              		.cfi_offset 11, -16
 1892              	.LCFI5:
 1893              		.cfi_def_cfa 11, 4
 1894 0190 10D04DE2 		sub	sp, sp, #16
 1895 0194 18000BE5 		str	r0, [fp, #-24]
 1896 0198 0130A0E1 		mov	r3, r1
 1897 019c 19304BE5 		strb	r3, [fp, #-25]
  46:../src/gpio.c **** 	int pos  = pin*2;
 1898              		.loc 1 46 0
 1899 01a0 18301BE5 		ldr	r3, [fp, #-24]
 1900 01a4 8330A0E1 		mov	r3, r3, asl #1
 1901 01a8 10300BE5 		str	r3, [fp, #-16]
  47:../src/gpio.c **** 
  48:../src/gpio.c **** 	if (pin < 0 || pin > 7)
 1902              		.loc 1 48 0
 1903 01ac 18301BE5 		ldr	r3, [fp, #-24]
 1904 01b0 000053E3 		cmp	r3, #0
 1905 01b4 020000BA 		blt	.L20
 1906              		.loc 1 48 0 is_stmt 0 discriminator 1
 1907 01b8 18301BE5 		ldr	r3, [fp, #-24]
 1908 01bc 070053E3 		cmp	r3, #7
 1909 01c0 010000DA 		ble	.L21
 1910              	.L20:
  49:../src/gpio.c **** 		return -1;
 1911              		.loc 1 49 0 is_stmt 1
 1912 01c4 0030E0E3 		mvn	r3, #0
 1913 01c8 370000EA 		b	.L22
 1914              	.L21:
  50:../src/gpio.c **** 
  51:../src/gpio.c **** 	switch (mode) {
 1915              		.loc 1 51 0
 1916 01cc 19305BE5 		ldrb	r3, [fp, #-25]	@ zero_extendqisi2
 1917 01d0 030053E3 		cmp	r3, #3
 1918 01d4 03F19F97 		ldrls	pc, [pc, r3, asl #2]
 1919 01d8 300000EA 		b	.L23
 1920              	.L28:
 1921 01dc EC010000 		.word	.L24
 1922 01e0 14020000 		.word	.L25
 1923 01e4 48020000 		.word	.L26
 1924 01e8 7C020000 		.word	.L27
 1925              	.L24:
  52:../src/gpio.c **** 		case INPUT:
  53:../src/gpio.c **** 		// COMPLETAR: tomar la implementaci贸n pr谩cticas anteriores
  54:../src/gpio.c **** 			rPCONG &= ~(0x3 << pos);
 1926              		.loc 1 54 0
 1927 01ec C8309FE5 		ldr	r3, .L30
 1928 01f0 C4209FE5 		ldr	r2, .L30
 1929 01f4 001092E5 		ldr	r1, [r2, #0]
 1930 01f8 0300A0E3 		mov	r0, #3
 1931 01fc 10201BE5 		ldr	r2, [fp, #-16]
 1932 0200 1022A0E1 		mov	r2, r0, asl r2
 1933 0204 0220E0E1 		mvn	r2, r2
 1934 0208 022001E0 		and	r2, r1, r2
 1935 020c 002083E5 		str	r2, [r3, #0]
  55:../src/gpio.c **** 			break;
 1936              		.loc 1 55 0
 1937 0210 240000EA 		b	.L29
 1938              	.L25:
  56:../src/gpio.c **** 		case OUTPUT:
  57:../src/gpio.c **** 		// COMPLETAR: tomar la implementaci贸n pr谩cticas anteriores
  58:../src/gpio.c **** 			rPCONG &= ~(0x0 << pos);
 1939              		.loc 1 58 0
 1940 0214 A0309FE5 		ldr	r3, .L30
 1941 0218 9C209FE5 		ldr	r2, .L30
 1942 021c 002092E5 		ldr	r2, [r2, #0]
 1943 0220 002083E5 		str	r2, [r3, #0]
  59:../src/gpio.c **** 			rPCONG |= (0x1 << pos);
 1944              		.loc 1 59 0
 1945 0224 90309FE5 		ldr	r3, .L30
 1946 0228 8C209FE5 		ldr	r2, .L30
 1947 022c 001092E5 		ldr	r1, [r2, #0]
 1948 0230 0100A0E3 		mov	r0, #1
 1949 0234 10201BE5 		ldr	r2, [fp, #-16]
 1950 0238 1022A0E1 		mov	r2, r0, asl r2
 1951 023c 022081E1 		orr	r2, r1, r2
 1952 0240 002083E5 		str	r2, [r3, #0]
  60:../src/gpio.c **** 			break;
 1953              		.loc 1 60 0
 1954 0244 170000EA 		b	.L29
 1955              	.L26:
  61:../src/gpio.c **** 		case SIGOUT:
  62:../src/gpio.c **** 		// COMPLETAR: tomar la implementaci贸n pr谩cticas anteriores
  63:../src/gpio.c **** 			rPCONG &= ~(0x0 << pos);
 1956              		.loc 1 63 0
 1957 0248 6C309FE5 		ldr	r3, .L30
 1958 024c 68209FE5 		ldr	r2, .L30
 1959 0250 002092E5 		ldr	r2, [r2, #0]
 1960 0254 002083E5 		str	r2, [r3, #0]
  64:../src/gpio.c **** 			rPCONG |= (0x2 << pos);
 1961              		.loc 1 64 0
 1962 0258 5C309FE5 		ldr	r3, .L30
 1963 025c 58209FE5 		ldr	r2, .L30
 1964 0260 001092E5 		ldr	r1, [r2, #0]
 1965 0264 0200A0E3 		mov	r0, #2
 1966 0268 10201BE5 		ldr	r2, [fp, #-16]
 1967 026c 1022A0E1 		mov	r2, r0, asl r2
 1968 0270 022081E1 		orr	r2, r1, r2
 1969 0274 002083E5 		str	r2, [r3, #0]
  65:../src/gpio.c **** 			break;
 1970              		.loc 1 65 0
 1971 0278 0A0000EA 		b	.L29
 1972              	.L27:
  66:../src/gpio.c **** 		case EINT:
  67:../src/gpio.c **** 		// COMPLETAR: tomar la implementaci贸n pr谩cticas anteriores
  68:../src/gpio.c **** 			rPCONG |= (0x3 << pos);
 1973              		.loc 1 68 0
 1974 027c 38309FE5 		ldr	r3, .L30
 1975 0280 34209FE5 		ldr	r2, .L30
 1976 0284 001092E5 		ldr	r1, [r2, #0]
 1977 0288 0300A0E3 		mov	r0, #3
 1978 028c 10201BE5 		ldr	r2, [fp, #-16]
 1979 0290 1022A0E1 		mov	r2, r0, asl r2
 1980 0294 022081E1 		orr	r2, r1, r2
 1981 0298 002083E5 		str	r2, [r3, #0]
  69:../src/gpio.c **** 			break;
 1982              		.loc 1 69 0
 1983 029c 010000EA 		b	.L29
 1984              	.L23:
  70:../src/gpio.c **** 		default:
  71:../src/gpio.c **** 			return -1;
 1985              		.loc 1 71 0
 1986 02a0 0030E0E3 		mvn	r3, #0
 1987 02a4 000000EA 		b	.L22
 1988              	.L29:
  72:../src/gpio.c **** 	}
  73:../src/gpio.c **** 
  74:../src/gpio.c **** 	return 0;
 1989              		.loc 1 74 0
 1990 02a8 0030A0E3 		mov	r3, #0
 1991              	.L22:
  75:../src/gpio.c **** }
 1992              		.loc 1 75 0
 1993 02ac 0300A0E1 		mov	r0, r3
 1994 02b0 0CD04BE2 		sub	sp, fp, #12
 1995 02b4 00689DE8 		ldmfd	sp, {fp, sp, lr}
 1996 02b8 1EFF2FE1 		bx	lr
 1997              	.L31:
 1998              		.align	2
 1999              	.L30:
 2000 02bc 4000D201 		.word	30539840
 2001              		.cfi_endproc
 2002              	.LFE2:
 2004              		.align	2
 2005              		.global	portG_eint_trig
 2007              	portG_eint_trig:
 2008              	.LFB3:
  76:../src/gpio.c **** 
  77:../src/gpio.c **** int portG_eint_trig(int pin, enum trigger trig)
  78:../src/gpio.c **** {
 2009              		.loc 1 78 0
 2010              		.cfi_startproc
 2011              		@ Function supports interworking.
 2012              		@ args = 0, pretend = 0, frame = 16
 2013              		@ frame_needed = 1, uses_anonymous_args = 0
 2014 02c0 0DC0A0E1 		mov	ip, sp
 2015              	.LCFI6:
 2016              		.cfi_def_cfa_register 12
 2017 02c4 00D82DE9 		stmfd	sp!, {fp, ip, lr, pc}
 2018 02c8 04B04CE2 		sub	fp, ip, #4
 2019              		.cfi_offset 14, -8
 2020              		.cfi_offset 13, -12
 2021              		.cfi_offset 11, -16
 2022              	.LCFI7:
 2023              		.cfi_def_cfa 11, 4
 2024 02cc 10D04DE2 		sub	sp, sp, #16
 2025 02d0 18000BE5 		str	r0, [fp, #-24]
 2026 02d4 0130A0E1 		mov	r3, r1
 2027 02d8 19304BE5 		strb	r3, [fp, #-25]
  79:../src/gpio.c **** 	int pos = pin*4;
 2028              		.loc 1 79 0
 2029 02dc 18301BE5 		ldr	r3, [fp, #-24]
 2030 02e0 0331A0E1 		mov	r3, r3, asl #2
 2031 02e4 10300BE5 		str	r3, [fp, #-16]
  80:../src/gpio.c **** 
  81:../src/gpio.c **** 	if (pin < 0 || pin > 7)
 2032              		.loc 1 81 0
 2033 02e8 18301BE5 		ldr	r3, [fp, #-24]
 2034 02ec 000053E3 		cmp	r3, #0
 2035 02f0 020000BA 		blt	.L33
 2036              		.loc 1 81 0 is_stmt 0 discriminator 1
 2037 02f4 18301BE5 		ldr	r3, [fp, #-24]
 2038 02f8 070053E3 		cmp	r3, #7
 2039 02fc 010000DA 		ble	.L34
 2040              	.L33:
  82:../src/gpio.c **** 		return -1;
 2041              		.loc 1 82 0 is_stmt 1
 2042 0300 0030E0E3 		mvn	r3, #0
 2043 0304 5D0000EA 		b	.L35
 2044              	.L34:
  83:../src/gpio.c **** 
  84:../src/gpio.c **** switch (trig) {
 2045              		.loc 1 84 0
 2046 0308 19305BE5 		ldrb	r3, [fp, #-25]	@ zero_extendqisi2
 2047 030c 040053E3 		cmp	r3, #4
 2048 0310 03F19F97 		ldrls	pc, [pc, r3, asl #2]
 2049 0314 560000EA 		b	.L36
 2050              	.L42:
 2051 0318 2C030000 		.word	.L37
 2052 031c 54030000 		.word	.L38
 2053 0320 9C030000 		.word	.L39
 2054 0324 E4030000 		.word	.L40
 2055 0328 2C040000 		.word	.L41
 2056              	.L37:
  85:../src/gpio.c **** 		case LLOW:
  86:../src/gpio.c **** 			// COMPLETAR: poner en rEXTINT a partir de la posicin pos tres bits
  87:../src/gpio.c **** 			// a 000, para configurar interrupciones externas por nivel bajo
  88:../src/gpio.c **** 			rEXTINT = rEXTINT & ~(0x7 << pos);
 2057              		.loc 1 88 0
 2058 032c 5C319FE5 		ldr	r3, .L44
 2059 0330 58219FE5 		ldr	r2, .L44
 2060 0334 001092E5 		ldr	r1, [r2, #0]
 2061 0338 0700A0E3 		mov	r0, #7
 2062 033c 10201BE5 		ldr	r2, [fp, #-16]
 2063 0340 1022A0E1 		mov	r2, r0, asl r2
 2064 0344 0220E0E1 		mvn	r2, r2
 2065 0348 022001E0 		and	r2, r1, r2
 2066 034c 002083E5 		str	r2, [r3, #0]
  89:../src/gpio.c **** 			break;
 2067              		.loc 1 89 0
 2068 0350 490000EA 		b	.L43
 2069              	.L38:
  90:../src/gpio.c **** 		case LHIGH:
  91:../src/gpio.c **** 			// COMPLETAR: poner en rEXTINT a partir de la posici贸n pos tres bits
  92:../src/gpio.c **** 			// a 001, para configurar interrupciones externas por nivel alto
  93:../src/gpio.c **** 			rEXTINT = rEXTINT & ~(0x6 << pos);
 2070              		.loc 1 93 0
 2071 0354 34319FE5 		ldr	r3, .L44
 2072 0358 30219FE5 		ldr	r2, .L44
 2073 035c 001092E5 		ldr	r1, [r2, #0]
 2074 0360 0600A0E3 		mov	r0, #6
 2075 0364 10201BE5 		ldr	r2, [fp, #-16]
 2076 0368 1022A0E1 		mov	r2, r0, asl r2
 2077 036c 0220E0E1 		mvn	r2, r2
 2078 0370 022001E0 		and	r2, r1, r2
 2079 0374 002083E5 		str	r2, [r3, #0]
  94:../src/gpio.c **** 			rEXTINT = rEXTINT | (0x1 << pos);
 2080              		.loc 1 94 0
 2081 0378 10319FE5 		ldr	r3, .L44
 2082 037c 0C219FE5 		ldr	r2, .L44
 2083 0380 001092E5 		ldr	r1, [r2, #0]
 2084 0384 0100A0E3 		mov	r0, #1
 2085 0388 10201BE5 		ldr	r2, [fp, #-16]
 2086 038c 1022A0E1 		mov	r2, r0, asl r2
 2087 0390 022081E1 		orr	r2, r1, r2
 2088 0394 002083E5 		str	r2, [r3, #0]
  95:../src/gpio.c **** 			break;
 2089              		.loc 1 95 0
 2090 0398 370000EA 		b	.L43
 2091              	.L39:
  96:../src/gpio.c **** 		case FALLING:
  97:../src/gpio.c **** 			// COMPLETAR: poner en rEXTINT a partir de la posicin pos tres bits
  98:../src/gpio.c **** 			// a 010, para configurar interrupciones externas por flanco de
  99:../src/gpio.c **** 			// bajada
 100:../src/gpio.c **** 			rEXTINT = rEXTINT & ~(0x5 << pos);
 2092              		.loc 1 100 0
 2093 039c EC309FE5 		ldr	r3, .L44
 2094 03a0 E8209FE5 		ldr	r2, .L44
 2095 03a4 001092E5 		ldr	r1, [r2, #0]
 2096 03a8 0500A0E3 		mov	r0, #5
 2097 03ac 10201BE5 		ldr	r2, [fp, #-16]
 2098 03b0 1022A0E1 		mov	r2, r0, asl r2
 2099 03b4 0220E0E1 		mvn	r2, r2
 2100 03b8 022001E0 		and	r2, r1, r2
 2101 03bc 002083E5 		str	r2, [r3, #0]
 101:../src/gpio.c **** 			rEXTINT = rEXTINT | (0x2 << pos);
 2102              		.loc 1 101 0
 2103 03c0 C8309FE5 		ldr	r3, .L44
 2104 03c4 C4209FE5 		ldr	r2, .L44
 2105 03c8 001092E5 		ldr	r1, [r2, #0]
 2106 03cc 0200A0E3 		mov	r0, #2
 2107 03d0 10201BE5 		ldr	r2, [fp, #-16]
 2108 03d4 1022A0E1 		mov	r2, r0, asl r2
 2109 03d8 022081E1 		orr	r2, r1, r2
 2110 03dc 002083E5 		str	r2, [r3, #0]
 102:../src/gpio.c **** 			break;
 2111              		.loc 1 102 0
 2112 03e0 250000EA 		b	.L43
 2113              	.L40:
 103:../src/gpio.c **** 		case RISING:
 104:../src/gpio.c **** 			// COMPLETAR: poner en rEXTINT a partir de la posici贸n pos tres bits
 105:../src/gpio.c **** 			// a 100, para configurar interrupciones externas por flanco de
 106:../src/gpio.c **** 			// subida
 107:../src/gpio.c **** 			rEXTINT = rEXTINT & ~(0x3 << pos);
 2114              		.loc 1 107 0
 2115 03e4 A4309FE5 		ldr	r3, .L44
 2116 03e8 A0209FE5 		ldr	r2, .L44
 2117 03ec 001092E5 		ldr	r1, [r2, #0]
 2118 03f0 0300A0E3 		mov	r0, #3
 2119 03f4 10201BE5 		ldr	r2, [fp, #-16]
 2120 03f8 1022A0E1 		mov	r2, r0, asl r2
 2121 03fc 0220E0E1 		mvn	r2, r2
 2122 0400 022001E0 		and	r2, r1, r2
 2123 0404 002083E5 		str	r2, [r3, #0]
 108:../src/gpio.c **** 			rEXTINT = rEXTINT | (0x4 << pos);
 2124              		.loc 1 108 0
 2125 0408 80309FE5 		ldr	r3, .L44
 2126 040c 7C209FE5 		ldr	r2, .L44
 2127 0410 001092E5 		ldr	r1, [r2, #0]
 2128 0414 0400A0E3 		mov	r0, #4
 2129 0418 10201BE5 		ldr	r2, [fp, #-16]
 2130 041c 1022A0E1 		mov	r2, r0, asl r2
 2131 0420 022081E1 		orr	r2, r1, r2
 2132 0424 002083E5 		str	r2, [r3, #0]
 109:../src/gpio.c **** 			break;
 2133              		.loc 1 109 0
 2134 0428 130000EA 		b	.L43
 2135              	.L41:
 110:../src/gpio.c **** 		case EDGE:
 111:../src/gpio.c **** 			// COMPLETAR: poner en rEXTINT a partir de la posici贸n pos tres bits
 112:../src/gpio.c **** 			// a 110, para configurar interrupciones externas por cualquier
 113:../src/gpio.c **** 			// flanco
 114:../src/gpio.c **** 			rEXTINT = rEXTINT & ~(0x1 << pos);
 2136              		.loc 1 114 0
 2137 042c 5C309FE5 		ldr	r3, .L44
 2138 0430 58209FE5 		ldr	r2, .L44
 2139 0434 001092E5 		ldr	r1, [r2, #0]
 2140 0438 0100A0E3 		mov	r0, #1
 2141 043c 10201BE5 		ldr	r2, [fp, #-16]
 2142 0440 1022A0E1 		mov	r2, r0, asl r2
 2143 0444 0220E0E1 		mvn	r2, r2
 2144 0448 022001E0 		and	r2, r1, r2
 2145 044c 002083E5 		str	r2, [r3, #0]
 115:../src/gpio.c **** 			rEXTINT = rEXTINT | (0x6 << pos);
 2146              		.loc 1 115 0
 2147 0450 38309FE5 		ldr	r3, .L44
 2148 0454 34209FE5 		ldr	r2, .L44
 2149 0458 001092E5 		ldr	r1, [r2, #0]
 2150 045c 0600A0E3 		mov	r0, #6
 2151 0460 10201BE5 		ldr	r2, [fp, #-16]
 2152 0464 1022A0E1 		mov	r2, r0, asl r2
 2153 0468 022081E1 		orr	r2, r1, r2
 2154 046c 002083E5 		str	r2, [r3, #0]
 116:../src/gpio.c **** 			break;
 2155              		.loc 1 116 0
 2156 0470 010000EA 		b	.L43
 2157              	.L36:
 117:../src/gpio.c **** 		default:
 118:../src/gpio.c **** 			return -1;
 2158              		.loc 1 118 0
 2159 0474 0030E0E3 		mvn	r3, #0
 2160 0478 000000EA 		b	.L35
 2161              	.L43:
 119:../src/gpio.c **** 	}
 120:../src/gpio.c **** 	return 0;
 2162              		.loc 1 120 0
 2163 047c 0030A0E3 		mov	r3, #0
 2164              	.L35:
 121:../src/gpio.c **** }
 2165              		.loc 1 121 0
 2166 0480 0300A0E1 		mov	r0, r3
 2167 0484 0CD04BE2 		sub	sp, fp, #12
 2168 0488 00689DE8 		ldmfd	sp, {fp, sp, lr}
 2169 048c 1EFF2FE1 		bx	lr
 2170              	.L45:
 2171              		.align	2
 2172              	.L44:
 2173 0490 5000D201 		.word	30539856
 2174              		.cfi_endproc
 2175              	.LFE3:
 2177              		.align	2
 2178              		.global	portG_write
 2180              	portG_write:
 2181              	.LFB4:
 122:../src/gpio.c **** 
 123:../src/gpio.c **** int portG_write(int pin, enum digital val)
 124:../src/gpio.c **** {
 2182              		.loc 1 124 0
 2183              		.cfi_startproc
 2184              		@ Function supports interworking.
 2185              		@ args = 0, pretend = 0, frame = 16
 2186              		@ frame_needed = 1, uses_anonymous_args = 0
 2187 0494 0DC0A0E1 		mov	ip, sp
 2188              	.LCFI8:
 2189              		.cfi_def_cfa_register 12
 2190 0498 00D82DE9 		stmfd	sp!, {fp, ip, lr, pc}
 2191 049c 04B04CE2 		sub	fp, ip, #4
 2192              		.cfi_offset 14, -8
 2193              		.cfi_offset 13, -12
 2194              		.cfi_offset 11, -16
 2195              	.LCFI9:
 2196              		.cfi_def_cfa 11, 4
 2197 04a0 10D04DE2 		sub	sp, sp, #16
 2198 04a4 18000BE5 		str	r0, [fp, #-24]
 2199 04a8 0130A0E1 		mov	r3, r1
 2200 04ac 19304BE5 		strb	r3, [fp, #-25]
 125:../src/gpio.c **** 	int pos = pin*2;
 2201              		.loc 1 125 0
 2202 04b0 18301BE5 		ldr	r3, [fp, #-24]
 2203 04b4 8330A0E1 		mov	r3, r3, asl #1
 2204 04b8 10300BE5 		str	r3, [fp, #-16]
 126:../src/gpio.c **** 
 127:../src/gpio.c **** 	if (pin < 0 || pin > 7)
 2205              		.loc 1 127 0
 2206 04bc 18301BE5 		ldr	r3, [fp, #-24]
 2207 04c0 000053E3 		cmp	r3, #0
 2208 04c4 020000BA 		blt	.L47
 2209              		.loc 1 127 0 is_stmt 0 discriminator 1
 2210 04c8 18301BE5 		ldr	r3, [fp, #-24]
 2211 04cc 070053E3 		cmp	r3, #7
 2212 04d0 010000DA 		ble	.L48
 2213              	.L47:
 128:../src/gpio.c **** 		return -1;
 2214              		.loc 1 128 0 is_stmt 1
 2215 04d4 0030E0E3 		mvn	r3, #0
 2216 04d8 270000EA 		b	.L49
 2217              	.L48:
 129:../src/gpio.c **** 
 130:../src/gpio.c **** 	if (val < 0 || val > 1)
 2218              		.loc 1 130 0
 2219 04dc 19305BE5 		ldrb	r3, [fp, #-25]	@ zero_extendqisi2
 2220 04e0 010053E3 		cmp	r3, #1
 2221 04e4 0100009A 		bls	.L50
 131:../src/gpio.c **** 		return -1;
 2222              		.loc 1 131 0
 2223 04e8 0030E0E3 		mvn	r3, #0
 2224 04ec 220000EA 		b	.L49
 2225              	.L50:
 132:../src/gpio.c **** 
 133:../src/gpio.c **** 	if ((rPCONG & (0x3 << pos)) != (0x1 << pos))
 2226              		.loc 1 133 0
 2227 04f0 94309FE5 		ldr	r3, .L54
 2228 04f4 002093E5 		ldr	r2, [r3, #0]
 2229 04f8 0310A0E3 		mov	r1, #3
 2230 04fc 10301BE5 		ldr	r3, [fp, #-16]
 2231 0500 1133A0E1 		mov	r3, r1, asl r3
 2232 0504 032002E0 		and	r2, r2, r3
 2233 0508 0110A0E3 		mov	r1, #1
 2234 050c 10301BE5 		ldr	r3, [fp, #-16]
 2235 0510 1133A0E1 		mov	r3, r1, asl r3
 2236 0514 030052E1 		cmp	r2, r3
 2237 0518 0100000A 		beq	.L51
 134:../src/gpio.c **** 		return -1;
 2238              		.loc 1 134 0
 2239 051c 0030E0E3 		mvn	r3, #0
 2240 0520 150000EA 		b	.L49
 2241              	.L51:
 135:../src/gpio.c **** 
 136:../src/gpio.c **** 	if (val)
 2242              		.loc 1 136 0
 2243 0524 19305BE5 		ldrb	r3, [fp, #-25]	@ zero_extendqisi2
 2244 0528 000053E3 		cmp	r3, #0
 2245 052c 0800000A 		beq	.L52
 137:../src/gpio.c **** 		// COMPLETAR: tomar la implementaci贸n pr谩cticas anteriores
 138:../src/gpio.c **** 		rPDATG |= (0x1 << pos);
 2246              		.loc 1 138 0
 2247 0530 58309FE5 		ldr	r3, .L54+4
 2248 0534 54209FE5 		ldr	r2, .L54+4
 2249 0538 001092E5 		ldr	r1, [r2, #0]
 2250 053c 0100A0E3 		mov	r0, #1
 2251 0540 10201BE5 		ldr	r2, [fp, #-16]
 2252 0544 1022A0E1 		mov	r2, r0, asl r2
 2253 0548 022081E1 		orr	r2, r1, r2
 2254 054c 002083E5 		str	r2, [r3, #0]
 2255 0550 080000EA 		b	.L53
 2256              	.L52:
 139:../src/gpio.c **** 	else
 140:../src/gpio.c **** 		// COMPLETAR: tomar la implementaci贸n pr谩cticas anteriores
 141:../src/gpio.c **** 		rPDATG &= ~(0x1 << pos);
 2257              		.loc 1 141 0
 2258 0554 34309FE5 		ldr	r3, .L54+4
 2259 0558 30209FE5 		ldr	r2, .L54+4
 2260 055c 001092E5 		ldr	r1, [r2, #0]
 2261 0560 0100A0E3 		mov	r0, #1
 2262 0564 10201BE5 		ldr	r2, [fp, #-16]
 2263 0568 1022A0E1 		mov	r2, r0, asl r2
 2264 056c 0220E0E1 		mvn	r2, r2
 2265 0570 022001E0 		and	r2, r1, r2
 2266 0574 002083E5 		str	r2, [r3, #0]
 2267              	.L53:
 142:../src/gpio.c **** 
 143:../src/gpio.c **** 	return 0;
 2268              		.loc 1 143 0
 2269 0578 0030A0E3 		mov	r3, #0
 2270              	.L49:
 144:../src/gpio.c **** }
 2271              		.loc 1 144 0
 2272 057c 0300A0E1 		mov	r0, r3
 2273 0580 0CD04BE2 		sub	sp, fp, #12
 2274 0584 00689DE8 		ldmfd	sp, {fp, sp, lr}
 2275 0588 1EFF2FE1 		bx	lr
 2276              	.L55:
 2277              		.align	2
 2278              	.L54:
 2279 058c 4000D201 		.word	30539840
 2280 0590 4400D201 		.word	30539844
 2281              		.cfi_endproc
 2282              	.LFE4:
 2284              		.align	2
 2285              		.global	portG_read
 2287              	portG_read:
 2288              	.LFB5:
 145:../src/gpio.c **** 
 146:../src/gpio.c **** int portG_read(int pin, enum digital* val)
 147:../src/gpio.c **** {
 2289              		.loc 1 147 0
 2290              		.cfi_startproc
 2291              		@ Function supports interworking.
 2292              		@ args = 0, pretend = 0, frame = 16
 2293              		@ frame_needed = 1, uses_anonymous_args = 0
 2294 0594 0DC0A0E1 		mov	ip, sp
 2295              	.LCFI10:
 2296              		.cfi_def_cfa_register 12
 2297 0598 00D82DE9 		stmfd	sp!, {fp, ip, lr, pc}
 2298 059c 04B04CE2 		sub	fp, ip, #4
 2299              		.cfi_offset 14, -8
 2300              		.cfi_offset 13, -12
 2301              		.cfi_offset 11, -16
 2302              	.LCFI11:
 2303              		.cfi_def_cfa 11, 4
 2304 05a0 10D04DE2 		sub	sp, sp, #16
 2305 05a4 18000BE5 		str	r0, [fp, #-24]
 2306 05a8 1C100BE5 		str	r1, [fp, #-28]
 148:../src/gpio.c **** 	int pos = pin*2;
 2307              		.loc 1 148 0
 2308 05ac 18301BE5 		ldr	r3, [fp, #-24]
 2309 05b0 8330A0E1 		mov	r3, r3, asl #1
 2310 05b4 10300BE5 		str	r3, [fp, #-16]
 149:../src/gpio.c **** 
 150:../src/gpio.c **** 	if (pin < 0 || pin > 7)
 2311              		.loc 1 150 0
 2312 05b8 18301BE5 		ldr	r3, [fp, #-24]
 2313 05bc 000053E3 		cmp	r3, #0
 2314 05c0 020000BA 		blt	.L57
 2315              		.loc 1 150 0 is_stmt 0 discriminator 1
 2316 05c4 18301BE5 		ldr	r3, [fp, #-24]
 2317 05c8 070053E3 		cmp	r3, #7
 2318 05cc 010000DA 		ble	.L58
 2319              	.L57:
 151:../src/gpio.c **** 		return -1;
 2320              		.loc 1 151 0 is_stmt 1
 2321 05d0 0030E0E3 		mvn	r3, #0
 2322 05d4 190000EA 		b	.L59
 2323              	.L58:
 152:../src/gpio.c **** 
 153:../src/gpio.c **** 	if (rPCONG & (0x3 << pos))
 2324              		.loc 1 153 0
 2325 05d8 70309FE5 		ldr	r3, .L63
 2326 05dc 002093E5 		ldr	r2, [r3, #0]
 2327 05e0 0310A0E3 		mov	r1, #3
 2328 05e4 10301BE5 		ldr	r3, [fp, #-16]
 2329 05e8 1133A0E1 		mov	r3, r1, asl r3
 2330 05ec 033002E0 		and	r3, r2, r3
 2331 05f0 000053E3 		cmp	r3, #0
 2332 05f4 0100000A 		beq	.L60
 154:../src/gpio.c **** 		return -1;
 2333              		.loc 1 154 0
 2334 05f8 0030E0E3 		mvn	r3, #0
 2335 05fc 0F0000EA 		b	.L59
 2336              	.L60:
 155:../src/gpio.c **** 
 156:../src/gpio.c **** 	if (rPDATG & (0x1 << pin))
 2337              		.loc 1 156 0
 2338 0600 4C309FE5 		ldr	r3, .L63+4
 2339 0604 002093E5 		ldr	r2, [r3, #0]
 2340 0608 0110A0E3 		mov	r1, #1
 2341 060c 18301BE5 		ldr	r3, [fp, #-24]
 2342 0610 1133A0E1 		mov	r3, r1, asl r3
 2343 0614 033002E0 		and	r3, r2, r3
 2344 0618 000053E3 		cmp	r3, #0
 2345 061c 0300000A 		beq	.L61
 157:../src/gpio.c **** 		// COMPLETAR: tomar la implementaci贸n pr谩cticas anteriores
 158:../src/gpio.c **** 		*val = HIGH;
 2346              		.loc 1 158 0
 2347 0620 1C301BE5 		ldr	r3, [fp, #-28]
 2348 0624 0120A0E3 		mov	r2, #1
 2349 0628 0020C3E5 		strb	r2, [r3, #0]
 2350 062c 020000EA 		b	.L62
 2351              	.L61:
 159:../src/gpio.c **** 	else
 160:../src/gpio.c **** 		// COMPLETAR: tomar la implementaci贸n pr谩cticas anteriores
 161:../src/gpio.c **** 		*val = LOW;
 2352              		.loc 1 161 0
 2353 0630 1C301BE5 		ldr	r3, [fp, #-28]
 2354 0634 0020A0E3 		mov	r2, #0
 2355 0638 0020C3E5 		strb	r2, [r3, #0]
 2356              	.L62:
 162:../src/gpio.c **** 
 163:../src/gpio.c **** 	return 0;
 2357              		.loc 1 163 0
 2358 063c 0030A0E3 		mov	r3, #0
 2359              	.L59:
 164:../src/gpio.c **** }
 2360              		.loc 1 164 0
 2361 0640 0300A0E1 		mov	r0, r3
 2362 0644 0CD04BE2 		sub	sp, fp, #12
 2363 0648 00689DE8 		ldmfd	sp, {fp, sp, lr}
 2364 064c 1EFF2FE1 		bx	lr
 2365              	.L64:
 2366              		.align	2
 2367              	.L63:
 2368 0650 4000D201 		.word	30539840
 2369 0654 4400D201 		.word	30539844
 2370              		.cfi_endproc
 2371              	.LFE5:
 2373              		.align	2
 2374              		.global	portG_conf_pup
 2376              	portG_conf_pup:
 2377              	.LFB6:
 165:../src/gpio.c **** 
 166:../src/gpio.c **** int portG_conf_pup(int pin, enum enable st)
 167:../src/gpio.c **** {
 2378              		.loc 1 167 0
 2379              		.cfi_startproc
 2380              		@ Function supports interworking.
 2381              		@ args = 0, pretend = 0, frame = 8
 2382              		@ frame_needed = 1, uses_anonymous_args = 0
 2383 0658 0DC0A0E1 		mov	ip, sp
 2384              	.LCFI12:
 2385              		.cfi_def_cfa_register 12
 2386 065c 00D82DE9 		stmfd	sp!, {fp, ip, lr, pc}
 2387 0660 04B04CE2 		sub	fp, ip, #4
 2388              		.cfi_offset 14, -8
 2389              		.cfi_offset 13, -12
 2390              		.cfi_offset 11, -16
 2391              	.LCFI13:
 2392              		.cfi_def_cfa 11, 4
 2393 0664 08D04DE2 		sub	sp, sp, #8
 2394 0668 10000BE5 		str	r0, [fp, #-16]
 2395 066c 0130A0E1 		mov	r3, r1
 2396 0670 11304BE5 		strb	r3, [fp, #-17]
 168:../src/gpio.c **** 	if (pin < 0 || pin > 7)
 2397              		.loc 1 168 0
 2398 0674 10301BE5 		ldr	r3, [fp, #-16]
 2399 0678 000053E3 		cmp	r3, #0
 2400 067c 020000BA 		blt	.L66
 2401              		.loc 1 168 0 is_stmt 0 discriminator 1
 2402 0680 10301BE5 		ldr	r3, [fp, #-16]
 2403 0684 070053E3 		cmp	r3, #7
 2404 0688 010000DA 		ble	.L67
 2405              	.L66:
 169:../src/gpio.c **** 		return -1;
 2406              		.loc 1 169 0 is_stmt 1
 2407 068c 0030E0E3 		mvn	r3, #0
 2408 0690 1D0000EA 		b	.L68
 2409              	.L67:
 170:../src/gpio.c **** 
 171:../src/gpio.c **** 	if (st != ENABLE && st != DISABLE)
 2410              		.loc 1 171 0
 2411 0694 11305BE5 		ldrb	r3, [fp, #-17]	@ zero_extendqisi2
 2412 0698 010053E3 		cmp	r3, #1
 2413 069c 0400000A 		beq	.L69
 2414              		.loc 1 171 0 is_stmt 0 discriminator 1
 2415 06a0 11305BE5 		ldrb	r3, [fp, #-17]	@ zero_extendqisi2
 2416 06a4 000053E3 		cmp	r3, #0
 2417 06a8 0100000A 		beq	.L69
 172:../src/gpio.c **** 		return -1;
 2418              		.loc 1 172 0 is_stmt 1
 2419 06ac 0030E0E3 		mvn	r3, #0
 2420 06b0 150000EA 		b	.L68
 2421              	.L69:
 173:../src/gpio.c **** 
 174:../src/gpio.c **** 	if (st == ENABLE)
 2422              		.loc 1 174 0
 2423 06b4 11305BE5 		ldrb	r3, [fp, #-17]	@ zero_extendqisi2
 2424 06b8 010053E3 		cmp	r3, #1
 2425 06bc 0800001A 		bne	.L70
 175:../src/gpio.c **** 		// COMPLETAR: tomar la implementaci贸n pr谩cticas anteriores
 176:../src/gpio.c **** 		rPUPG |= (0x1 << pin);
 2426              		.loc 1 176 0
 2427 06c0 54309FE5 		ldr	r3, .L72
 2428 06c4 50209FE5 		ldr	r2, .L72
 2429 06c8 001092E5 		ldr	r1, [r2, #0]
 2430 06cc 0100A0E3 		mov	r0, #1
 2431 06d0 10201BE5 		ldr	r2, [fp, #-16]
 2432 06d4 1022A0E1 		mov	r2, r0, asl r2
 2433 06d8 022081E1 		orr	r2, r1, r2
 2434 06dc 002083E5 		str	r2, [r3, #0]
 2435 06e0 080000EA 		b	.L71
 2436              	.L70:
 177:../src/gpio.c **** 	else
 178:../src/gpio.c **** 		// COMPLETAR: tomar la implementaci贸n pr谩cticas anteriores
 179:../src/gpio.c **** 		rPUPG &= ~(0x1 << pin);
 2437              		.loc 1 179 0
 2438 06e4 30309FE5 		ldr	r3, .L72
 2439 06e8 2C209FE5 		ldr	r2, .L72
 2440 06ec 001092E5 		ldr	r1, [r2, #0]
 2441 06f0 0100A0E3 		mov	r0, #1
 2442 06f4 10201BE5 		ldr	r2, [fp, #-16]
 2443 06f8 1022A0E1 		mov	r2, r0, asl r2
 2444 06fc 0220E0E1 		mvn	r2, r2
 2445 0700 022001E0 		and	r2, r1, r2
 2446 0704 002083E5 		str	r2, [r3, #0]
 2447              	.L71:
 180:../src/gpio.c **** 
 181:../src/gpio.c **** 	return 0;
 2448              		.loc 1 181 0
 2449 0708 0030A0E3 		mov	r3, #0
 2450              	.L68:
 182:../src/gpio.c **** }
 2451              		.loc 1 182 0
 2452 070c 0300A0E1 		mov	r0, r3
 2453 0710 0CD04BE2 		sub	sp, fp, #12
 2454 0714 00689DE8 		ldmfd	sp, {fp, sp, lr}
 2455 0718 1EFF2FE1 		bx	lr
 2456              	.L73:
 2457              		.align	2
 2458              	.L72:
 2459 071c 4800D201 		.word	30539848
 2460              		.cfi_endproc
 2461              	.LFE6:
 2463              	.Letext0: